target datalayout = "e-m:e-p270:32:32-p271:32:32-p272:64:64-i64:64-i128:128-f80:128-n8:16:32:64-S128"
target triple = "x86_64-pc-linux-gnu"

%"class.std::__cxx11::basic_string" = type { %"struct.std::__cxx11::basic_string<char>::_Alloc_hider", i64, %union.anon }
%"struct.std::__cxx11::basic_string<char>::_Alloc_hider" = type { ptr }
%union.anon = type { i64, [8 x i8] }
%"class.std::allocator" = type { i8 }

@.str.28 = private unnamed_addr constant [21 x i8] c"Unknown player type.\00", align 1

; Function Attrs: mustprogress uwtable
define noundef i32 @_ZN10open_spiel6y_game14PlayerRelativeENS0_7YPlayerEi(i8 noundef zeroext %0, i32 noundef %1) #5 personality ptr @__gxx_personality_v0 {
  %3 = alloca i32, align 4
  %4 = alloca i8, align 1
  %5 = alloca i32, align 4
  %6 = alloca %"class.std::__cxx11::basic_string", align 8
  %7 = alloca %"class.std::allocator", align 1
  %8 = alloca ptr, align 8
  %9 = alloca i32, align 4
  store i8 %0, ptr %4, align 1
  store i32 %1, ptr %5, align 4
  %10 = load i8, ptr %4, align 1
  %11 = zext i8 %10 to i32
  switch i32 %11, label %21 [
    i32 0, label %12
    i32 1, label %16
    i32 2, label %20
  ]

12:                                               ; preds = %2
  %13 = load i32, ptr %5, align 4
  %14 = icmp eq i32 %13, 0
  %15 = select i1 %14, i32 0, i32 1
  store i32 %15, ptr %3, align 4
  br label %33

16:                                               ; preds = %2
  %17 = load i32, ptr %5, align 4
  %18 = icmp eq i32 %17, 1
  %19 = select i1 %18, i32 0, i32 1
  store i32 %19, ptr %3, align 4
  br label %33

20:                                               ; preds = %2
  store i32 2, ptr %3, align 4
  br label %33

21:                                               ; preds = %2
  call void @_ZNSaIcEC1Ev(ptr noundef nonnull align 1 dereferenceable(1) %7) #3
  invoke void @_ZNSt7__cxx1112basic_stringIcSt11char_traitsIcESaIcEEC2IS3_EEPKcRKS3_(ptr noundef nonnull align 8 dereferenceable(32) %6, ptr noundef @.str.28, ptr noundef nonnull align 1 dereferenceable(1) %7)
          to label %22 unwind label %24

22:                                               ; preds = %21
  invoke void @_ZN10open_spiel15SpielFatalErrorERKNSt7__cxx1112basic_stringIcSt11char_traitsIcESaIcEEE(ptr noundef nonnull align 8 dereferenceable(32) %6) #15
          to label %23 unwind label %28

23:                                               ; preds = %22
  unreachable

24:                                               ; preds = %21
  %25 = landingpad { ptr, i32 }
          cleanup
  %26 = extractvalue { ptr, i32 } %25, 0
  store ptr %26, ptr %8, align 8
  %27 = extractvalue { ptr, i32 } %25, 1
  store i32 %27, ptr %9, align 4
  br label %32

28:                                               ; preds = %22
  %29 = landingpad { ptr, i32 }
          cleanup
  %30 = extractvalue { ptr, i32 } %29, 0
  store ptr %30, ptr %8, align 8
  %31 = extractvalue { ptr, i32 } %29, 1
  store i32 %31, ptr %9, align 4
  call void @_ZNSt7__cxx1112basic_stringIcSt11char_traitsIcESaIcEED1Ev(ptr noundef nonnull align 8 dereferenceable(32) %6) #3
  br label %32

32:                                               ; preds = %28, %24
  call void @_ZNSaIcED1Ev(ptr noundef nonnull align 1 dereferenceable(1) %7) #3
  br label %35

33:                                               ; preds = %20, %16, %12
  %34 = load i32, ptr %3, align 4
  ret i32 %34

35:                                               ; preds = %32
  %36 = load ptr, ptr %8, align 8
  %37 = load i32, ptr %9, align 4
  %38 = insertvalue { ptr, i32 } poison, ptr %36, 0
  %39 = insertvalue { ptr, i32 } %38, i32 %37, 1
  resume { ptr, i32 } %39
}